; Function Attrs: nounwind uwtable
define dso_local void @logicalrep_read_commit_prepared(ptr noundef %0, ptr noundef %1) local_unnamed_addr #0 {
  %3 = tail call i32 @pq_getmsgbyte(ptr noundef %0) #8
  %4 = and i32 %3, 255
  %.not = icmp eq i32 %4, 0
  br i1 %.not, label %8, label %5

5:                                                ; preds = %2
  %6 = tail call zeroext i1 @errstart_cold(i32 noundef 21, ptr noundef null) #9
  tail call void @llvm.assume(i1 %6)
  %7 = tail call i32 (ptr, ...) @errmsg_internal(ptr noundef nonnull @.str.6, i32 noundef %4) #8
  tail call void @errfinish(ptr noundef nonnull @.str.1, i32 noundef 273, ptr noundef nonnull @__func__.logicalrep_read_commit_prepared) #8
  unreachable

8:                                                ; preds = %2
  %9 = tail call i64 @pq_getmsgint64(ptr noundef %0) #8
  store i64 %9, ptr %1, align 8
  %10 = icmp eq i64 %9, 0
  br i1 %10, label %11, label %14

11:                                               ; preds = %8
  %12 = tail call zeroext i1 @errstart_cold(i32 noundef 21, ptr noundef null) #9
  tail call void @llvm.assume(i1 %12)
  %13 = tail call i32 (ptr, ...) @errmsg_internal(ptr noundef nonnull @.str.7) #8
  tail call void @errfinish(ptr noundef nonnull @.str.1, i32 noundef 278, ptr noundef nonnull @__func__.logicalrep_read_commit_prepared) #8
  unreachable

14:                                               ; preds = %8
  %15 = tail call i64 @pq_getmsgint64(ptr noundef %0) #8
  %16 = getelementptr inbounds nuw i8, ptr %1, i64 8
  store i64 %15, ptr %16, align 8
  %17 = icmp eq i64 %15, 0
  br i1 %17, label %18, label %21

18:                                               ; preds = %14
  %19 = tail call zeroext i1 @errstart_cold(i32 noundef 21, ptr noundef null) #9
  tail call void @llvm.assume(i1 %19)
  %20 = tail call i32 (ptr, ...) @errmsg_internal(ptr noundef nonnull @.str.8) #8
  tail call void @errfinish(ptr noundef nonnull @.str.1, i32 noundef 281, ptr noundef nonnull @__func__.logicalrep_read_commit_prepared) #8
  unreachable

21:                                               ; preds = %14
  %22 = tail call i64 @pq_getmsgint64(ptr noundef %0) #8
  %23 = getelementptr inbounds nuw i8, ptr %1, i64 16
  store i64 %22, ptr %23, align 8
  %24 = tail call i32 @pq_getmsgint(ptr noundef %0, i32 noundef 4) #8
  %25 = getelementptr inbounds nuw i8, ptr %1, i64 24
  store i32 %24, ptr %25, align 8
  %26 = getelementptr inbounds nuw i8, ptr %1, i64 28
  %27 = tail call ptr @pq_getmsgstring(ptr noundef %0) #8
  %28 = tail call i64 @strlcpy(ptr noundef nonnull dereferenceable(1) %26, ptr noundef nonnull dereferenceable(1) %27, i64 noundef 200) #8
  ret void
}